target datalayout = "e-m:e-p270:32:32-p271:32:32-p272:64:64-i64:64-i128:128-f80:128-n8:16:32:64-S128"
target triple = "x86_64-pc-linux-gnu"

; Function Attrs: nounwind uwtable
define void @QuESTAssert(i32 noundef %0, i32 noundef %1, ptr noundef %2) #0 {
  %4 = alloca i32, align 4
  %5 = alloca i32, align 4
  %6 = alloca ptr, align 8
  store i32 %0, ptr %4, align 4, !tbaa !9
  store i32 %1, ptr %5, align 4, !tbaa !9
  store ptr %2, ptr %6, align 8, !tbaa !4
  %7 = load i32, ptr %4, align 4, !tbaa !9
  %8 = icmp ne i32 %7, 0
  br i1 %8, label %15, label %9

9:                                                ; preds = %3
  %10 = load i32, ptr %5, align 4, !tbaa !9
  %11 = zext i32 %10 to i64
  %12 = getelementptr inbounds nuw [92 x ptr], ptr @errorMessages, i64 0, i64 %11
  %13 = load ptr, ptr %12, align 8, !tbaa !4
  %14 = load ptr, ptr %6, align 8, !tbaa !4
  call void @invalidQuESTInputError(ptr noundef %13, ptr noundef %14)
  br label %15

15:                                               ; preds = %9, %3
  ret void
}

; Function Attrs: nounwind uwtable
define void @validatePhaseFuncName(i32 noundef %0, i32 noundef %1, i32 noundef %2, ptr noundef %3) #0 {
  %5 = alloca i32, align 4
  %6 = alloca i32, align 4
  %7 = alloca i32, align 4
  %8 = alloca ptr, align 8
  store i32 %0, ptr %5, align 4, !tbaa !9
  store i32 %1, ptr %6, align 4, !tbaa !9
  store i32 %2, ptr %7, align 4, !tbaa !9
  store ptr %3, ptr %8, align 8, !tbaa !4
  %9 = load i32, ptr %5, align 4, !tbaa !9
  %10 = icmp eq i32 %9, 0
  br i1 %10, label %53, label %11

11:                                               ; preds = %4
  %12 = load i32, ptr %5, align 4, !tbaa !9
  %13 = icmp eq i32 %12, 2
  br i1 %13, label %53, label %14

14:                                               ; preds = %11
  %15 = load i32, ptr %5, align 4, !tbaa !9
  %16 = icmp eq i32 %15, 1
  br i1 %16, label %53, label %17

17:                                               ; preds = %14
  %18 = load i32, ptr %5, align 4, !tbaa !9
  %19 = icmp eq i32 %18, 3
  br i1 %19, label %53, label %20

20:                                               ; preds = %17
  %21 = load i32, ptr %5, align 4, !tbaa !9
  %22 = icmp eq i32 %21, 4
  br i1 %22, label %53, label %23

23:                                               ; preds = %20
  %24 = load i32, ptr %5, align 4, !tbaa !9
  %25 = icmp eq i32 %24, 5
  br i1 %25, label %53, label %26

26:                                               ; preds = %23
  %27 = load i32, ptr %5, align 4, !tbaa !9
  %28 = icmp eq i32 %27, 7
  br i1 %28, label %53, label %29

29:                                               ; preds = %26
  %30 = load i32, ptr %5, align 4, !tbaa !9
  %31 = icmp eq i32 %30, 6
  br i1 %31, label %53, label %32

32:                                               ; preds = %29
  %33 = load i32, ptr %5, align 4, !tbaa !9
  %34 = icmp eq i32 %33, 8
  br i1 %34, label %53, label %35

35:                                               ; preds = %32
  %36 = load i32, ptr %5, align 4, !tbaa !9
  %37 = icmp eq i32 %36, 9
  br i1 %37, label %53, label %38

38:                                               ; preds = %35
  %39 = load i32, ptr %5, align 4, !tbaa !9
  %40 = icmp eq i32 %39, 11
  br i1 %40, label %53, label %41

41:                                               ; preds = %38
  %42 = load i32, ptr %5, align 4, !tbaa !9
  %43 = icmp eq i32 %42, 10
  br i1 %43, label %53, label %44

44:                                               ; preds = %41
  %45 = load i32, ptr %5, align 4, !tbaa !9
  %46 = icmp eq i32 %45, 12
  br i1 %46, label %53, label %47

47:                                               ; preds = %44
  %48 = load i32, ptr %5, align 4, !tbaa !9
  %49 = icmp eq i32 %48, 13
  br i1 %49, label %53, label %50

50:                                               ; preds = %47
  %51 = load i32, ptr %5, align 4, !tbaa !9
  %52 = icmp eq i32 %51, 14
  br label %53

53:                                               ; preds = %50, %47, %44, %41, %38, %35, %32, %29, %26, %23, %20, %17, %14, %11, %4
  %54 = phi i1 [ true, %47 ], [ true, %44 ], [ true, %41 ], [ true, %38 ], [ true, %35 ], [ true, %32 ], [ true, %29 ], [ true, %26 ], [ true, %23 ], [ true, %20 ], [ true, %17 ], [ true, %14 ], [ true, %11 ], [ true, %4 ], [ %52, %50 ]
  %55 = zext i1 %54 to i32
  %56 = load ptr, ptr %8, align 8, !tbaa !4
  call void @QuESTAssert(i32 noundef %55, i32 noundef 75, ptr noundef %56)
  %57 = load i32, ptr %5, align 4, !tbaa !9
  %58 = icmp eq i32 %57, 9
  br i1 %58, label %74, label %59

59:                                               ; preds = %53
  %60 = load i32, ptr %5, align 4, !tbaa !9
  %61 = icmp eq i32 %60, 11
  br i1 %61, label %74, label %62

62:                                               ; preds = %59
  %63 = load i32, ptr %5, align 4, !tbaa !9
  %64 = icmp eq i32 %63, 10
  br i1 %64, label %74, label %65

65:                                               ; preds = %62
  %66 = load i32, ptr %5, align 4, !tbaa !9
  %67 = icmp eq i32 %66, 12
  br i1 %67, label %74, label %68

68:                                               ; preds = %65
  %69 = load i32, ptr %5, align 4, !tbaa !9
  %70 = icmp eq i32 %69, 13
  br i1 %70, label %74, label %71

71:                                               ; preds = %68
  %72 = load i32, ptr %5, align 4, !tbaa !9
  %73 = icmp eq i32 %72, 14
  br i1 %73, label %74, label %80

74:                                               ; preds = %71, %68, %65, %62, %59, %53
  %75 = load i32, ptr %6, align 4, !tbaa !9
  %76 = srem i32 %75, 2
  %77 = icmp eq i32 %76, 0
  %78 = zext i1 %77 to i32
  %79 = load ptr, ptr %8, align 8, !tbaa !4
  call void @QuESTAssert(i32 noundef %78, i32 noundef 83, ptr noundef %79)
  br label %80

80:                                               ; preds = %74, %71
  %81 = load i32, ptr %5, align 4, !tbaa !9
  %82 = icmp eq i32 %81, 0
  br i1 %82, label %89, label %83

83:                                               ; preds = %80
  %84 = load i32, ptr %5, align 4, !tbaa !9
  %85 = icmp eq i32 %84, 5
  br i1 %85, label %89, label %86

86:                                               ; preds = %83
  %87 = load i32, ptr %5, align 4, !tbaa !9
  %88 = icmp eq i32 %87, 9
  br i1 %88, label %89, label %94

89:                                               ; preds = %86, %83, %80
  %90 = load i32, ptr %7, align 4, !tbaa !9
  %91 = icmp eq i32 %90, 0
  %92 = zext i1 %91 to i32
  %93 = load ptr, ptr %8, align 8, !tbaa !4
  call void @QuESTAssert(i32 noundef %92, i32 noundef 76, ptr noundef %93)
  br label %94

94:                                               ; preds = %89, %86
  %95 = load i32, ptr %5, align 4, !tbaa !9
  %96 = icmp eq i32 %95, 2
  br i1 %96, label %103, label %97

97:                                               ; preds = %94
  %98 = load i32, ptr %5, align 4, !tbaa !9
  %99 = icmp eq i32 %98, 7
  br i1 %99, label %103, label %100

100:                                              ; preds = %97
  %101 = load i32, ptr %5, align 4, !tbaa !9
  %102 = icmp eq i32 %101, 11
  br i1 %102, label %103, label %108

103:                                              ; preds = %100, %97, %94
  %104 = load i32, ptr %7, align 4, !tbaa !9
  %105 = icmp eq i32 %104, 1
  %106 = zext i1 %105 to i32
  %107 = load ptr, ptr %8, align 8, !tbaa !4
  call void @QuESTAssert(i32 noundef %106, i32 noundef 76, ptr noundef %107)
  br label %108

108:                                              ; preds = %103, %100
  %109 = load i32, ptr %5, align 4, !tbaa !9
  %110 = icmp eq i32 %109, 1
  br i1 %110, label %117, label %111

111:                                              ; preds = %108
  %112 = load i32, ptr %5, align 4, !tbaa !9
  %113 = icmp eq i32 %112, 6
  br i1 %113, label %117, label %114

114:                                              ; preds = %111
  %115 = load i32, ptr %5, align 4, !tbaa !9
  %116 = icmp eq i32 %115, 10
  br i1 %116, label %117, label %122

117:                                              ; preds = %114, %111, %108
  %118 = load i32, ptr %7, align 4, !tbaa !9
  %119 = icmp eq i32 %118, 1
  %120 = zext i1 %119 to i32
  %121 = load ptr, ptr %8, align 8, !tbaa !4
  call void @QuESTAssert(i32 noundef %120, i32 noundef 76, ptr noundef %121)
  br label %122

122:                                              ; preds = %117, %114
  %123 = load i32, ptr %5, align 4, !tbaa !9
  %124 = icmp eq i32 %123, 3
  br i1 %124, label %131, label %125

125:                                              ; preds = %122
  %126 = load i32, ptr %5, align 4, !tbaa !9
  %127 = icmp eq i32 %126, 8
  br i1 %127, label %131, label %128

128:                                              ; preds = %125
  %129 = load i32, ptr %5, align 4, !tbaa !9
  %130 = icmp eq i32 %129, 12
  br i1 %130, label %131, label %136

131:                                              ; preds = %128, %125, %122
  %132 = load i32, ptr %7, align 4, !tbaa !9
  %133 = icmp eq i32 %132, 2
  %134 = zext i1 %133 to i32
  %135 = load ptr, ptr %8, align 8, !tbaa !4
  call void @QuESTAssert(i32 noundef %134, i32 noundef 76, ptr noundef %135)
  br label %136

136:                                              ; preds = %131, %128
  %137 = load i32, ptr %5, align 4, !tbaa !9
  %138 = icmp eq i32 %137, 4
  br i1 %138, label %139, label %146

139:                                              ; preds = %136
  %140 = load i32, ptr %7, align 4, !tbaa !9
  %141 = load i32, ptr %6, align 4, !tbaa !9
  %142 = add nsw i32 2, %141
  %143 = icmp eq i32 %140, %142
  %144 = zext i1 %143 to i32
  %145 = load ptr, ptr %8, align 8, !tbaa !4
  call void @QuESTAssert(i32 noundef %144, i32 noundef 76, ptr noundef %145)
  br label %146

146:                                              ; preds = %139, %136
  %147 = load i32, ptr %5, align 4, !tbaa !9
  %148 = icmp eq i32 %147, 13
  br i1 %148, label %149, label %157

149:                                              ; preds = %146
  %150 = load i32, ptr %7, align 4, !tbaa !9
  %151 = load i32, ptr %6, align 4, !tbaa !9
  %152 = sdiv i32 %151, 2
  %153 = add nsw i32 2, %152
  %154 = icmp eq i32 %150, %153
  %155 = zext i1 %154 to i32
  %156 = load ptr, ptr %8, align 8, !tbaa !4
  call void @QuESTAssert(i32 noundef %155, i32 noundef 76, ptr noundef %156)
  br label %157

157:                                              ; preds = %149, %146
  %158 = load i32, ptr %5, align 4, !tbaa !9
  %159 = icmp eq i32 %158, 14
  br i1 %159, label %160, label %169

160:                                              ; preds = %157
  %161 = load i32, ptr %7, align 4, !tbaa !9
  %162 = load i32, ptr %6, align 4, !tbaa !9
  %163 = sdiv i32 %162, 2
  %164 = mul nsw i32 2, %163
  %165 = add nsw i32 2, %164
  %166 = icmp eq i32 %161, %165
  %167 = zext i1 %166 to i32
  %168 = load ptr, ptr %8, align 8, !tbaa !4
  call void @QuESTAssert(i32 noundef %167, i32 noundef 76, ptr noundef %168)
  br label %169

169:                                              ; preds = %160, %157
  ret void
}