; Function Attrs: nounwind uwtable
define void @validatePhaseFuncName(i32 noundef %0, i32 noundef %1, i32 noundef %2, ptr noundef %3) local_unnamed_addr #3 {
  %narrow = icmp ugt i32 %0, 14
  br i1 %narrow, label %QuESTAssert.exit107.sink.split, label %QuESTAssert.exit

QuESTAssert.exit:                                 ; preds = %4
  %or.cond35 = icmp ult i32 %0, 9
  %5 = and i32 %1, 1
  %.not.i106.not = icmp eq i32 %5, 0
  %or.cond = or i1 %or.cond35, %.not.i106.not
  br i1 %or.cond, label %QuESTAssert.exit107, label %QuESTAssert.exit107.sink.split

QuESTAssert.exit107.sink.split:                   ; preds = %QuESTAssert.exit, %4
  %.str.77.sink = phi ptr [ @.str.77, %4 ], [ @.str.85, %QuESTAssert.exit ]
  tail call void @invalidQuESTInputError(ptr noundef nonnull %.str.77.sink, ptr noundef %3)
  br label %QuESTAssert.exit107

QuESTAssert.exit107:                              ; preds = %QuESTAssert.exit107.sink.split, %QuESTAssert.exit
  switch i32 %0, label %QuESTAssert.exit117 [
    i32 9, label %6
    i32 5, label %6
    i32 0, label %6
    i32 11, label %8
    i32 7, label %8
    i32 2, label %8
    i32 10, label %10
    i32 6, label %10
    i32 1, label %10
    i32 12, label %12
    i32 8, label %12
    i32 3, label %12
    i32 4, label %15
    i32 13, label %16
    i32 14, label %19
  ]

6:                                                ; preds = %QuESTAssert.exit107, %QuESTAssert.exit107, %QuESTAssert.exit107
  %.not123 = icmp eq i32 %2, 0
  br i1 %.not123, label %QuESTAssert.exit109, label %7

7:                                                ; preds = %6
  tail call void @invalidQuESTInputError(ptr noundef nonnull @.str.78, ptr noundef %3)
  br label %QuESTAssert.exit109

QuESTAssert.exit109:                              ; preds = %6, %7
  switch i32 %0, label %QuESTAssert.exit117 [
    i32 4, label %15
    i32 7, label %8
    i32 2, label %8
    i32 3, label %12
    i32 6, label %10
    i32 1, label %10
    i32 8, label %12
  ]

8:                                                ; preds = %QuESTAssert.exit107, %QuESTAssert.exit107, %QuESTAssert.exit107, %QuESTAssert.exit109, %QuESTAssert.exit109
  %.not124 = icmp eq i32 %2, 1
  br i1 %.not124, label %QuESTAssert.exit111, label %9

9:                                                ; preds = %8
  tail call void @invalidQuESTInputError(ptr noundef nonnull @.str.78, ptr noundef %3)
  br label %QuESTAssert.exit111

QuESTAssert.exit111:                              ; preds = %8, %9
  switch i32 %0, label %QuESTAssert.exit117 [
    i32 10, label %10
    i32 6, label %10
    i32 4, label %15
    i32 3, label %12
    i32 8, label %12
  ]

10:                                               ; preds = %QuESTAssert.exit107, %QuESTAssert.exit107, %QuESTAssert.exit107, %QuESTAssert.exit109, %QuESTAssert.exit109, %QuESTAssert.exit111, %QuESTAssert.exit111
  %.not125 = icmp eq i32 %2, 1
  br i1 %.not125, label %QuESTAssert.exit113, label %11

11:                                               ; preds = %10
  tail call void @invalidQuESTInputError(ptr noundef nonnull @.str.78, ptr noundef %3)
  br label %QuESTAssert.exit113

QuESTAssert.exit113:                              ; preds = %10, %11
  switch i32 %0, label %QuESTAssert.exit117 [
    i32 4, label %15
    i32 8, label %12
    i32 3, label %12
  ]

12:                                               ; preds = %QuESTAssert.exit111, %QuESTAssert.exit109, %QuESTAssert.exit109, %QuESTAssert.exit107, %QuESTAssert.exit107, %QuESTAssert.exit107, %QuESTAssert.exit111, %QuESTAssert.exit113, %QuESTAssert.exit113
  %.not126 = icmp eq i32 %2, 2
  br i1 %.not126, label %QuESTAssert.exit115, label %13

13:                                               ; preds = %12
  tail call void @invalidQuESTInputError(ptr noundef nonnull @.str.78, ptr noundef %3)
  br label %QuESTAssert.exit115

QuESTAssert.exit115:                              ; preds = %12, %13
  %cond = icmp ne i32 %0, 4
  %14 = add nsw i32 %1, 2
  %.not127 = icmp eq i32 %2, %14
  %or.cond128 = select i1 %cond, i1 true, i1 %.not127
  br i1 %or.cond128, label %QuESTAssert.exit117, label %QuESTAssert.exit117.sink.split

15:                                               ; preds = %QuESTAssert.exit113, %QuESTAssert.exit111, %QuESTAssert.exit109, %QuESTAssert.exit107
  %.old = add nsw i32 %1, 2
  %.not127.old = icmp eq i32 %2, %.old
  br i1 %.not127.old, label %QuESTAssert.exit117, label %QuESTAssert.exit117.sink.split

16:                                               ; preds = %QuESTAssert.exit107
  %17 = sdiv i32 %1, 2
  %18 = add nsw i32 %17, 2
  %.not122 = icmp eq i32 %2, %18
  br i1 %.not122, label %QuESTAssert.exit117, label %QuESTAssert.exit117.sink.split

19:                                               ; preds = %QuESTAssert.exit107
  %20 = sdiv i32 %1, 2
  %21 = shl nsw i32 %20, 1
  %22 = add nsw i32 %21, 2
  %.not = icmp eq i32 %2, %22
  br i1 %.not, label %QuESTAssert.exit117, label %QuESTAssert.exit117.sink.split

QuESTAssert.exit117.sink.split:                   ; preds = %19, %16, %15, %QuESTAssert.exit115
  tail call void @invalidQuESTInputError(ptr noundef nonnull @.str.78, ptr noundef %3)
  br label %QuESTAssert.exit117

QuESTAssert.exit117:                              ; preds = %QuESTAssert.exit117.sink.split, %QuESTAssert.exit115, %19, %16, %15, %QuESTAssert.exit107, %QuESTAssert.exit109, %QuESTAssert.exit111, %QuESTAssert.exit113
  ret void
}